
_forktest:     file format elf32-i386


Disassembly of section .text:

00000000 <main>:
  printf(1, "fork test OK\n");
}

int
main(void)
{
   0:	55                   	push   %ebp
   1:	89 e5                	mov    %esp,%ebp
   3:	83 e4 f0             	and    $0xfffffff0,%esp
  forktest();
   6:	e8 35 00 00 00       	call   40 <forktest>
  exit();
   b:	e8 42 03 00 00       	call   352 <exit>

00000010 <printf>:

#define N  1000

void
printf(int fd, char *s, ...)
{
  10:	55                   	push   %ebp
  11:	89 e5                	mov    %esp,%ebp
  13:	53                   	push   %ebx
  14:	83 ec 14             	sub    $0x14,%esp
  17:	8b 5d 0c             	mov    0xc(%ebp),%ebx
  write(fd, s, strlen(s));
  1a:	89 1c 24             	mov    %ebx,(%esp)
  1d:	e8 6e 01 00 00       	call   190 <strlen>
  22:	89 5c 24 04          	mov    %ebx,0x4(%esp)
  26:	89 44 24 08          	mov    %eax,0x8(%esp)
  2a:	8b 45 08             	mov    0x8(%ebp),%eax
  2d:	89 04 24             	mov    %eax,(%esp)
  30:	e8 3d 03 00 00       	call   372 <write>
}
  35:	83 c4 14             	add    $0x14,%esp
  38:	5b                   	pop    %ebx
  39:	5d                   	pop    %ebp
  3a:	c3                   	ret    
  3b:	90                   	nop
  3c:	8d 74 26 00          	lea    0x0(%esi,%eiz,1),%esi

00000040 <forktest>:

void
forktest(void)
{
  40:	55                   	push   %ebp
  41:	89 e5                	mov    %esp,%ebp
  43:	53                   	push   %ebx
  int n, pid;

  printf(1, "fork test\n");

  for(n=0; n<N; n++){
  44:	31 db                	xor    %ebx,%ebx
  write(fd, s, strlen(s));
}

void
forktest(void)
{
  46:	83 ec 14             	sub    $0x14,%esp
  int n, pid;

  printf(1, "fork test\n");
  49:	c7 44 24 04 fc 03 00 	movl   $0x3fc,0x4(%esp)
  50:	00 
  51:	c7 04 24 01 00 00 00 	movl   $0x1,(%esp)
  58:	e8 b3 ff ff ff       	call   10 <printf>
  5d:	eb 13                	jmp    72 <forktest+0x32>
  5f:	90                   	nop

  for(n=0; n<N; n++){
    pid = fork();
    if(pid < 0)
      break;
    if(pid == 0)
  60:	0f 84 8f 00 00 00    	je     f5 <forktest+0xb5>
{
  int n, pid;

  printf(1, "fork test\n");

  for(n=0; n<N; n++){
  66:	83 c3 01             	add    $0x1,%ebx
  69:	81 fb e8 03 00 00    	cmp    $0x3e8,%ebx
  6f:	90                   	nop
  70:	74 4e                	je     c0 <forktest+0x80>
    pid = fork();
  72:	e8 d3 02 00 00       	call   34a <fork>
    if(pid < 0)
  77:	83 f8 00             	cmp    $0x0,%eax
  7a:	7d e4                	jge    60 <forktest+0x20>
  if(n == N){
    printf(1, "fork claimed to work N times!\n", N);
    exit();
  }

  for(; n > 0; n--){
  7c:	85 db                	test   %ebx,%ebx
  7e:	66 90                	xchg   %ax,%ax
  80:	74 15                	je     97 <forktest+0x57>
  82:	8d b6 00 00 00 00    	lea    0x0(%esi),%esi
    if(wait() < 0){
  88:	e8 cd 02 00 00       	call   35a <wait>
  8d:	85 c0                	test   %eax,%eax
  8f:	90                   	nop
  90:	78 4f                	js     e1 <forktest+0xa1>
  if(n == N){
    printf(1, "fork claimed to work N times!\n", N);
    exit();
  }

  for(; n > 0; n--){
  92:	83 eb 01             	sub    $0x1,%ebx
  95:	75 f1                	jne    88 <forktest+0x48>
      printf(1, "wait stopped early\n");
      exit();
    }
  }

  if(wait() != -1){
  97:	e8 be 02 00 00       	call   35a <wait>
  9c:	83 f8 ff             	cmp    $0xffffffff,%eax
  9f:	90                   	nop
  a0:	75 58                	jne    fa <forktest+0xba>
    printf(1, "wait got too many\n");
    exit();
  }

  printf(1, "fork test OK\n");
  a2:	c7 44 24 04 2e 04 00 	movl   $0x42e,0x4(%esp)
  a9:	00 
  aa:	c7 04 24 01 00 00 00 	movl   $0x1,(%esp)
  b1:	e8 5a ff ff ff       	call   10 <printf>
}
  b6:	83 c4 14             	add    $0x14,%esp
  b9:	5b                   	pop    %ebx
  ba:	5d                   	pop    %ebp
  bb:	c3                   	ret    
  bc:	8d 74 26 00          	lea    0x0(%esi,%eiz,1),%esi
    if(pid == 0)
      exit();
  }

  if(n == N){
    printf(1, "fork claimed to work N times!\n", N);
  c0:	c7 44 24 08 e8 03 00 	movl   $0x3e8,0x8(%esp)
  c7:	00 
  c8:	c7 44 24 04 3c 04 00 	movl   $0x43c,0x4(%esp)
  cf:	00 
  d0:	c7 04 24 01 00 00 00 	movl   $0x1,(%esp)
  d7:	e8 34 ff ff ff       	call   10 <printf>
    exit();
  dc:	e8 71 02 00 00       	call   352 <exit>
  }

  for(; n > 0; n--){
    if(wait() < 0){
      printf(1, "wait stopped early\n");
  e1:	c7 44 24 04 07 04 00 	movl   $0x407,0x4(%esp)
  e8:	00 
  e9:	c7 04 24 01 00 00 00 	movl   $0x1,(%esp)
  f0:	e8 1b ff ff ff       	call   10 <printf>
      exit();
  f5:	e8 58 02 00 00       	call   352 <exit>
    }
  }

  if(wait() != -1){
    printf(1, "wait got too many\n");
  fa:	c7 44 24 04 1b 04 00 	movl   $0x41b,0x4(%esp)
 101:	00 
 102:	c7 04 24 01 00 00 00 	movl   $0x1,(%esp)
 109:	e8 02 ff ff ff       	call   10 <printf>
    exit();
 10e:	e8 3f 02 00 00       	call   352 <exit>
 113:	66 90                	xchg   %ax,%ax
 115:	66 90                	xchg   %ax,%ax
 117:	66 90                	xchg   %ax,%ax
 119:	66 90                	xchg   %ax,%ax
 11b:	66 90                	xchg   %ax,%ax
 11d:	66 90                	xchg   %ax,%ax
 11f:	90                   	nop

00000120 <strcpy>:
#include "user.h"
#include "x86.h"

char*
strcpy(char *s, char *t)
{
 120:	55                   	push   %ebp
 121:	89 e5                	mov    %esp,%ebp
 123:	8b 45 08             	mov    0x8(%ebp),%eax
 126:	8b 4d 0c             	mov    0xc(%ebp),%ecx
 129:	53                   	push   %ebx
  char *os;

  os = s;
  while((*s++ = *t++) != 0)
 12a:	89 c2                	mov    %eax,%edx
 12c:	8d 74 26 00          	lea    0x0(%esi,%eiz,1),%esi
 130:	0f b6 19             	movzbl (%ecx),%ebx
 133:	83 c1 01             	add    $0x1,%ecx
 136:	88 1a                	mov    %bl,(%edx)
 138:	83 c2 01             	add    $0x1,%edx
 13b:	84 db                	test   %bl,%bl
 13d:	75 f1                	jne    130 <strcpy+0x10>
    ;
  return os;
}
 13f:	5b                   	pop    %ebx
 140:	5d                   	pop    %ebp
 141:	c3                   	ret    
 142:	8d b4 26 00 00 00 00 	lea    0x0(%esi,%eiz,1),%esi
 149:	8d bc 27 00 00 00 00 	lea    0x0(%edi,%eiz,1),%edi

00000150 <strcmp>:

int
strcmp(const char *p, const char *q)
{
 150:	55                   	push   %ebp
 151:	89 e5                	mov    %esp,%ebp
 153:	8b 55 08             	mov    0x8(%ebp),%edx
 156:	56                   	push   %esi
 157:	8b 4d 0c             	mov    0xc(%ebp),%ecx
 15a:	53                   	push   %ebx
  while(*p && *p == *q)
 15b:	0f b6 02             	movzbl (%edx),%eax
 15e:	0f b6 19             	movzbl (%ecx),%ebx
 161:	84 c0                	test   %al,%al
 163:	75 16                	jne    17b <strcmp+0x2b>
 165:	eb 21                	jmp    188 <strcmp+0x38>
 167:	90                   	nop
    p++, q++;
 168:	83 c2 01             	add    $0x1,%edx
}

int
strcmp(const char *p, const char *q)
{
  while(*p && *p == *q)
 16b:	0f b6 59 01          	movzbl 0x1(%ecx),%ebx
 16f:	0f b6 02             	movzbl (%edx),%eax
    p++, q++;
 172:	8d 71 01             	lea    0x1(%ecx),%esi
}

int
strcmp(const char *p, const char *q)
{
  while(*p && *p == *q)
 175:	84 c0                	test   %al,%al
 177:	74 0f                	je     188 <strcmp+0x38>
    p++, q++;
 179:	89 f1                	mov    %esi,%ecx
}

int
strcmp(const char *p, const char *q)
{
  while(*p && *p == *q)
 17b:	38 d8                	cmp    %bl,%al
 17d:	74 e9                	je     168 <strcmp+0x18>
    p++, q++;
  return (uchar)*p - (uchar)*q;
 17f:	29 d8                	sub    %ebx,%eax
}
 181:	5b                   	pop    %ebx
 182:	5e                   	pop    %esi
 183:	5d                   	pop    %ebp
 184:	c3                   	ret    
 185:	8d 76 00             	lea    0x0(%esi),%esi
}

int
strcmp(const char *p, const char *q)
{
  while(*p && *p == *q)
 188:	31 c0                	xor    %eax,%eax
    p++, q++;
  return (uchar)*p - (uchar)*q;
 18a:	29 d8                	sub    %ebx,%eax
}
 18c:	5b                   	pop    %ebx
 18d:	5e                   	pop    %esi
 18e:	5d                   	pop    %ebp
 18f:	c3                   	ret    

00000190 <strlen>:

uint
strlen(char *s)
{
 190:	55                   	push   %ebp
 191:	89 e5                	mov    %esp,%ebp
 193:	8b 4d 08             	mov    0x8(%ebp),%ecx
  int n;

  for(n = 0; s[n]; n++)
 196:	80 39 00             	cmpb   $0x0,(%ecx)
 199:	74 12                	je     1ad <strlen+0x1d>
 19b:	31 d2                	xor    %edx,%edx
 19d:	8d 76 00             	lea    0x0(%esi),%esi
 1a0:	83 c2 01             	add    $0x1,%edx
 1a3:	80 3c 11 00          	cmpb   $0x0,(%ecx,%edx,1)
 1a7:	89 d0                	mov    %edx,%eax
 1a9:	75 f5                	jne    1a0 <strlen+0x10>
    ;
  return n;
}
 1ab:	5d                   	pop    %ebp
 1ac:	c3                   	ret    
uint
strlen(char *s)
{
  int n;

  for(n = 0; s[n]; n++)
 1ad:	31 c0                	xor    %eax,%eax
    ;
  return n;
}
 1af:	5d                   	pop    %ebp
 1b0:	c3                   	ret    
 1b1:	eb 0d                	jmp    1c0 <memset>
 1b3:	90                   	nop
 1b4:	90                   	nop
 1b5:	90                   	nop
 1b6:	90                   	nop
 1b7:	90                   	nop
 1b8:	90                   	nop
 1b9:	90                   	nop
 1ba:	90                   	nop
 1bb:	90                   	nop
 1bc:	90                   	nop
 1bd:	90                   	nop
 1be:	90                   	nop
 1bf:	90                   	nop

000001c0 <memset>:

void*
memset(void *dst, int c, uint n)
{
 1c0:	55                   	push   %ebp
 1c1:	89 e5                	mov    %esp,%ebp
 1c3:	8b 55 08             	mov    0x8(%ebp),%edx
 1c6:	57                   	push   %edi
}

static inline void
stosb(void *addr, int data, int cnt)
{
  asm volatile("cld; rep stosb" :
 1c7:	8b 4d 10             	mov    0x10(%ebp),%ecx
 1ca:	8b 45 0c             	mov    0xc(%ebp),%eax
 1cd:	89 d7                	mov    %edx,%edi
 1cf:	fc                   	cld    
 1d0:	f3 aa                	rep stos %al,%es:(%edi)
  stosb(dst, c, n);
  return dst;
}
 1d2:	89 d0                	mov    %edx,%eax
 1d4:	5f                   	pop    %edi
 1d5:	5d                   	pop    %ebp
 1d6:	c3                   	ret    
 1d7:	89 f6                	mov    %esi,%esi
 1d9:	8d bc 27 00 00 00 00 	lea    0x0(%edi,%eiz,1),%edi

000001e0 <strchr>:

char*
strchr(const char *s, char c)
{
 1e0:	55                   	push   %ebp
 1e1:	89 e5                	mov    %esp,%ebp
 1e3:	8b 45 08             	mov    0x8(%ebp),%eax
 1e6:	0f b6 4d 0c          	movzbl 0xc(%ebp),%ecx
  for(; *s; s++)
 1ea:	0f b6 10             	movzbl (%eax),%edx
 1ed:	84 d2                	test   %dl,%dl
 1ef:	75 11                	jne    202 <strchr+0x22>
 1f1:	eb 15                	jmp    208 <strchr+0x28>
 1f3:	90                   	nop
 1f4:	8d 74 26 00          	lea    0x0(%esi,%eiz,1),%esi
 1f8:	83 c0 01             	add    $0x1,%eax
 1fb:	0f b6 10             	movzbl (%eax),%edx
 1fe:	84 d2                	test   %dl,%dl
 200:	74 06                	je     208 <strchr+0x28>
    if(*s == c)
 202:	38 ca                	cmp    %cl,%dl
 204:	75 f2                	jne    1f8 <strchr+0x18>
      return (char*)s;
  return 0;
}
 206:	5d                   	pop    %ebp
 207:	c3                   	ret    
strchr(const char *s, char c)
{
  for(; *s; s++)
    if(*s == c)
      return (char*)s;
  return 0;
 208:	31 c0                	xor    %eax,%eax
}
 20a:	5d                   	pop    %ebp
 20b:	90                   	nop
 20c:	8d 74 26 00          	lea    0x0(%esi,%eiz,1),%esi
 210:	c3                   	ret    
 211:	eb 0d                	jmp    220 <gets>
 213:	90                   	nop
 214:	90                   	nop
 215:	90                   	nop
 216:	90                   	nop
 217:	90                   	nop
 218:	90                   	nop
 219:	90                   	nop
 21a:	90                   	nop
 21b:	90                   	nop
 21c:	90                   	nop
 21d:	90                   	nop
 21e:	90                   	nop
 21f:	90                   	nop

00000220 <gets>:

char*
gets(char *buf, int max)
{
 220:	55                   	push   %ebp
 221:	89 e5                	mov    %esp,%ebp
 223:	57                   	push   %edi
 224:	56                   	push   %esi
 225:	53                   	push   %ebx
  int i, cc;
  char c;

  for(i=0; i+1 < max; ){
 226:	31 db                	xor    %ebx,%ebx
  return 0;
}

char*
gets(char *buf, int max)
{
 228:	83 ec 2c             	sub    $0x2c,%esp
  int i, cc;
  char c;

  for(i=0; i+1 < max; ){
    cc = read(0, &c, 1);
 22b:	8d 7d e7             	lea    -0x19(%ebp),%edi
gets(char *buf, int max)
{
  int i, cc;
  char c;

  for(i=0; i+1 < max; ){
 22e:	8d 73 01             	lea    0x1(%ebx),%esi
 231:	3b 75 0c             	cmp    0xc(%ebp),%esi
 234:	7d 42                	jge    278 <gets+0x58>
    cc = read(0, &c, 1);
 236:	c7 44 24 08 01 00 00 	movl   $0x1,0x8(%esp)
 23d:	00 
 23e:	89 7c 24 04          	mov    %edi,0x4(%esp)
 242:	c7 04 24 00 00 00 00 	movl   $0x0,(%esp)
 249:	e8 1c 01 00 00       	call   36a <read>
    if(cc < 1)
 24e:	85 c0                	test   %eax,%eax
 250:	7e 26                	jle    278 <gets+0x58>
      break;
    buf[i++] = c;
 252:	0f b6 45 e7          	movzbl -0x19(%ebp),%eax
 256:	89 f3                	mov    %esi,%ebx
 258:	8b 55 08             	mov    0x8(%ebp),%edx
    if(c == '\n' || c == '\r')
 25b:	3c 0d                	cmp    $0xd,%al

  for(i=0; i+1 < max; ){
    cc = read(0, &c, 1);
    if(cc < 1)
      break;
    buf[i++] = c;
 25d:	88 44 32 ff          	mov    %al,-0x1(%edx,%esi,1)
    if(c == '\n' || c == '\r')
 261:	74 04                	je     267 <gets+0x47>
 263:	3c 0a                	cmp    $0xa,%al
 265:	75 c7                	jne    22e <gets+0xe>
      break;
  }
  buf[i] = '\0';
 267:	8b 45 08             	mov    0x8(%ebp),%eax
 26a:	c6 04 30 00          	movb   $0x0,(%eax,%esi,1)
  return buf;
}
 26e:	83 c4 2c             	add    $0x2c,%esp
 271:	5b                   	pop    %ebx
 272:	5e                   	pop    %esi
 273:	5f                   	pop    %edi
 274:	5d                   	pop    %ebp
 275:	c3                   	ret    
 276:	66 90                	xchg   %ax,%ax
      break;
    buf[i++] = c;
    if(c == '\n' || c == '\r')
      break;
  }
  buf[i] = '\0';
 278:	8b 45 08             	mov    0x8(%ebp),%eax
  int i, cc;
  char c;

  for(i=0; i+1 < max; ){
    cc = read(0, &c, 1);
    if(cc < 1)
 27b:	89 de                	mov    %ebx,%esi
      break;
    buf[i++] = c;
    if(c == '\n' || c == '\r')
      break;
  }
  buf[i] = '\0';
 27d:	c6 04 30 00          	movb   $0x0,(%eax,%esi,1)
  return buf;
}
 281:	83 c4 2c             	add    $0x2c,%esp
 284:	5b                   	pop    %ebx
 285:	5e                   	pop    %esi
 286:	5f                   	pop    %edi
 287:	5d                   	pop    %ebp
 288:	c3                   	ret    
 289:	8d b4 26 00 00 00 00 	lea    0x0(%esi,%eiz,1),%esi

00000290 <stat>:

int
stat(char *n, struct stat *st)
{
 290:	55                   	push   %ebp
 291:	89 e5                	mov    %esp,%ebp
 293:	83 ec 18             	sub    $0x18,%esp
  int fd;
  int r;

  fd = open(n, O_RDONLY);
 296:	8b 45 08             	mov    0x8(%ebp),%eax
 299:	c7 44 24 04 00 00 00 	movl   $0x0,0x4(%esp)
 2a0:	00 
  return buf;
}

int
stat(char *n, struct stat *st)
{
 2a1:	89 5d f8             	mov    %ebx,-0x8(%ebp)
 2a4:	89 75 fc             	mov    %esi,-0x4(%ebp)
  int fd;
  int r;

  fd = open(n, O_RDONLY);
 2a7:	89 04 24             	mov    %eax,(%esp)
 2aa:	e8 e3 00 00 00       	call   392 <open>
  if(fd < 0)
 2af:	85 c0                	test   %eax,%eax
stat(char *n, struct stat *st)
{
  int fd;
  int r;

  fd = open(n, O_RDONLY);
 2b1:	89 c3                	mov    %eax,%ebx
  if(fd < 0)
 2b3:	78 2b                	js     2e0 <stat+0x50>
    return -1;
  r = fstat(fd, st);
 2b5:	8b 45 0c             	mov    0xc(%ebp),%eax
 2b8:	89 1c 24             	mov    %ebx,(%esp)
 2bb:	89 44 24 04          	mov    %eax,0x4(%esp)
 2bf:	e8 e6 00 00 00       	call   3aa <fstat>
  close(fd);
 2c4:	89 1c 24             	mov    %ebx,(%esp)
  int r;

  fd = open(n, O_RDONLY);
  if(fd < 0)
    return -1;
  r = fstat(fd, st);
 2c7:	89 c6                	mov    %eax,%esi
  close(fd);
 2c9:	e8 ac 00 00 00       	call   37a <close>
  return r;
}
 2ce:	89 f0                	mov    %esi,%eax
 2d0:	8b 5d f8             	mov    -0x8(%ebp),%ebx
 2d3:	8b 75 fc             	mov    -0x4(%ebp),%esi
 2d6:	89 ec                	mov    %ebp,%esp
 2d8:	5d                   	pop    %ebp
 2d9:	c3                   	ret    
 2da:	8d b6 00 00 00 00    	lea    0x0(%esi),%esi
  int fd;
  int r;

  fd = open(n, O_RDONLY);
  if(fd < 0)
    return -1;
 2e0:	be ff ff ff ff       	mov    $0xffffffff,%esi
 2e5:	eb e7                	jmp    2ce <stat+0x3e>
 2e7:	89 f6                	mov    %esi,%esi
 2e9:	8d bc 27 00 00 00 00 	lea    0x0(%edi,%eiz,1),%edi

000002f0 <atoi>:
  return r;
}

int
atoi(const char *s)
{
 2f0:	55                   	push   %ebp
 2f1:	89 e5                	mov    %esp,%ebp
 2f3:	8b 4d 08             	mov    0x8(%ebp),%ecx
 2f6:	53                   	push   %ebx
  int n;

  n = 0;
  while('0' <= *s && *s <= '9')
 2f7:	0f be 11             	movsbl (%ecx),%edx
 2fa:	8d 42 d0             	lea    -0x30(%edx),%eax
 2fd:	3c 09                	cmp    $0x9,%al
 2ff:	b8 00 00 00 00       	mov    $0x0,%eax
 304:	77 17                	ja     31d <atoi+0x2d>
 306:	66 90                	xchg   %ax,%ax
    n = n*10 + *s++ - '0';
 308:	83 c1 01             	add    $0x1,%ecx
 30b:	8d 04 80             	lea    (%eax,%eax,4),%eax
 30e:	8d 44 42 d0          	lea    -0x30(%edx,%eax,2),%eax
atoi(const char *s)
{
  int n;

  n = 0;
  while('0' <= *s && *s <= '9')
 312:	0f be 11             	movsbl (%ecx),%edx
 315:	8d 5a d0             	lea    -0x30(%edx),%ebx
 318:	80 fb 09             	cmp    $0x9,%bl
 31b:	76 eb                	jbe    308 <atoi+0x18>
    n = n*10 + *s++ - '0';
  return n;
}
 31d:	5b                   	pop    %ebx
 31e:	5d                   	pop    %ebp
 31f:	c3                   	ret    

00000320 <memmove>:

void*
memmove(void *vdst, void *vsrc, int n)
{
 320:	55                   	push   %ebp
    n = n*10 + *s++ - '0';
  return n;
}

void*
memmove(void *vdst, void *vsrc, int n)
 321:	31 d2                	xor    %edx,%edx
{
 323:	89 e5                	mov    %esp,%ebp
 325:	56                   	push   %esi
 326:	8b 45 08             	mov    0x8(%ebp),%eax
 329:	53                   	push   %ebx
 32a:	8b 5d 10             	mov    0x10(%ebp),%ebx
 32d:	8b 75 0c             	mov    0xc(%ebp),%esi
  char *dst, *src;

  dst = vdst;
  src = vsrc;
  while(n-- > 0)
 330:	85 db                	test   %ebx,%ebx
 332:	7e 12                	jle    346 <memmove+0x26>
 334:	8d 74 26 00          	lea    0x0(%esi,%eiz,1),%esi
    *dst++ = *src++;
 338:	0f b6 0c 16          	movzbl (%esi,%edx,1),%ecx
 33c:	88 0c 10             	mov    %cl,(%eax,%edx,1)
 33f:	83 c2 01             	add    $0x1,%edx
{
  char *dst, *src;

  dst = vdst;
  src = vsrc;
  while(n-- > 0)
 342:	39 da                	cmp    %ebx,%edx
 344:	75 f2                	jne    338 <memmove+0x18>
    *dst++ = *src++;
  return vdst;
}
 346:	5b                   	pop    %ebx
 347:	5e                   	pop    %esi
 348:	5d                   	pop    %ebp
 349:	c3                   	ret    

0000034a <fork>:
  name: \
    movl $SYS_ ## name, %eax; \
    int $T_SYSCALL; \
    ret

SYSCALL(fork)
 34a:	b8 01 00 00 00       	mov    $0x1,%eax
 34f:	cd 40                	int    $0x40
 351:	c3                   	ret    

00000352 <exit>:
SYSCALL(exit)
 352:	b8 02 00 00 00       	mov    $0x2,%eax
 357:	cd 40                	int    $0x40
 359:	c3                   	ret    

0000035a <wait>:
SYSCALL(wait)
 35a:	b8 03 00 00 00       	mov    $0x3,%eax
 35f:	cd 40                	int    $0x40
 361:	c3                   	ret    

00000362 <pipe>:
SYSCALL(pipe)
 362:	b8 04 00 00 00       	mov    $0x4,%eax
 367:	cd 40                	int    $0x40
 369:	c3                   	ret    

0000036a <read>:
SYSCALL(read)
 36a:	b8 05 00 00 00       	mov    $0x5,%eax
 36f:	cd 40                	int    $0x40
 371:	c3                   	ret    

00000372 <write>:
SYSCALL(write)
 372:	b8 10 00 00 00       	mov    $0x10,%eax
 377:	cd 40                	int    $0x40
 379:	c3                   	ret    

0000037a <close>:
SYSCALL(close)
 37a:	b8 15 00 00 00       	mov    $0x15,%eax
 37f:	cd 40                	int    $0x40
 381:	c3                   	ret    

00000382 <kill>:
SYSCALL(kill)
 382:	b8 06 00 00 00       	mov    $0x6,%eax
 387:	cd 40                	int    $0x40
 389:	c3                   	ret    

0000038a <exec>:
SYSCALL(exec)
 38a:	b8 07 00 00 00       	mov    $0x7,%eax
 38f:	cd 40                	int    $0x40
 391:	c3                   	ret    

00000392 <open>:
SYSCALL(open)
 392:	b8 0f 00 00 00       	mov    $0xf,%eax
 397:	cd 40                	int    $0x40
 399:	c3                   	ret    

0000039a <mknod>:
SYSCALL(mknod)
 39a:	b8 11 00 00 00       	mov    $0x11,%eax
 39f:	cd 40                	int    $0x40
 3a1:	c3                   	ret    

000003a2 <unlink>:
SYSCALL(unlink)
 3a2:	b8 12 00 00 00       	mov    $0x12,%eax
 3a7:	cd 40                	int    $0x40
 3a9:	c3                   	ret    

000003aa <fstat>:
SYSCALL(fstat)
 3aa:	b8 08 00 00 00       	mov    $0x8,%eax
 3af:	cd 40                	int    $0x40
 3b1:	c3                   	ret    

000003b2 <link>:
SYSCALL(link)
 3b2:	b8 13 00 00 00       	mov    $0x13,%eax
 3b7:	cd 40                	int    $0x40
 3b9:	c3                   	ret    

000003ba <mkdir>:
SYSCALL(mkdir)
 3ba:	b8 14 00 00 00       	mov    $0x14,%eax
 3bf:	cd 40                	int    $0x40
 3c1:	c3                   	ret    

000003c2 <chdir>:
SYSCALL(chdir)
 3c2:	b8 09 00 00 00       	mov    $0x9,%eax
 3c7:	cd 40                	int    $0x40
 3c9:	c3                   	ret    

000003ca <dup>:
SYSCALL(dup)
 3ca:	b8 0a 00 00 00       	mov    $0xa,%eax
 3cf:	cd 40                	int    $0x40
 3d1:	c3                   	ret    

000003d2 <getpid>:
SYSCALL(getpid)
 3d2:	b8 0b 00 00 00       	mov    $0xb,%eax
 3d7:	cd 40                	int    $0x40
 3d9:	c3                   	ret    

000003da <sbrk>:
SYSCALL(sbrk)
 3da:	b8 0c 00 00 00       	mov    $0xc,%eax
 3df:	cd 40                	int    $0x40
 3e1:	c3                   	ret    

000003e2 <sleep>:
SYSCALL(sleep)
 3e2:	b8 0d 00 00 00       	mov    $0xd,%eax
 3e7:	cd 40                	int    $0x40
 3e9:	c3                   	ret    

000003ea <uptime>:
SYSCALL(uptime)
 3ea:	b8 0e 00 00 00       	mov    $0xe,%eax
 3ef:	cd 40                	int    $0x40
 3f1:	c3                   	ret    

000003f2 <getprocs>:
SYSCALL(getprocs)
 3f2:	b8 16 00 00 00       	mov    $0x16,%eax
 3f7:	cd 40                	int    $0x40
 3f9:	c3                   	ret    
